; ModuleID = '8/801.c'
source_filename = "8/801.c"
target datalayout = "e-m:e-p270:32:32-p271:32:32-p272:64:64-i64:64-f80:128-n8:16:32:64-S128"
target triple = "x86_64-pc-linux-gnu"

@.str = private unnamed_addr constant [5 x i8] c"%d%d\00", align 1
@.str.1 = private unnamed_addr constant [3 x i8] c"%d\00", align 1
@.str.2 = private unnamed_addr constant [4 x i8] c"%d \00", align 1

; Function Attrs: noinline nounwind uwtable
define dso_local void @main() #0 {
  %1 = alloca i32, align 4
  %2 = alloca i32, align 4
  %3 = alloca i32, align 4
  %4 = alloca i32, align 4
  %5 = alloca [1000 x i32], align 16
  %6 = alloca [1000 x i32], align 16
  %7 = alloca i32, align 4
  %8 = alloca i32, align 4
  %9 = call i32 (i8*, ...) @__isoc99_scanf(i8* getelementptr inbounds ([5 x i8], [5 x i8]* @.str, i64 0, i64 0), i32* %1, i32* %2)
  store i32 1, i32* %3, align 4
  br label %10

10:                                               ; preds = %19, %0
  %11 = load i32, i32* %3, align 4
  %12 = load i32, i32* %1, align 4
  %13 = icmp sle i32 %11, %12
  br i1 %13, label %14, label %22

14:                                               ; preds = %10
  %15 = load i32, i32* %3, align 4
  %16 = sext i32 %15 to i64
  %17 = getelementptr inbounds [1000 x i32], [1000 x i32]* %5, i64 0, i64 %16
  %18 = call i32 (i8*, ...) @__isoc99_scanf(i8* getelementptr inbounds ([3 x i8], [3 x i8]* @.str.1, i64 0, i64 0), i32* %17)
  br label %19

19:                                               ; preds = %14
  %20 = load i32, i32* %3, align 4
  %21 = add nsw i32 %20, 1
  store i32 %21, i32* %3, align 4
  br label %10

22:                                               ; preds = %10
  store i32 1, i32* %3, align 4
  br label %23

23:                                               ; preds = %32, %22
  %24 = load i32, i32* %3, align 4
  %25 = load i32, i32* %2, align 4
  %26 = icmp sle i32 %24, %25
  br i1 %26, label %27, label %35

27:                                               ; preds = %23
  %28 = load i32, i32* %3, align 4
  %29 = sext i32 %28 to i64
  %30 = getelementptr inbounds [1000 x i32], [1000 x i32]* %6, i64 0, i64 %29
  %31 = call i32 (i8*, ...) @__isoc99_scanf(i8* getelementptr inbounds ([3 x i8], [3 x i8]* @.str.1, i64 0, i64 0), i32* %30)
  br label %32

32:                                               ; preds = %27
  %33 = load i32, i32* %3, align 4
  %34 = add nsw i32 %33, 1
  store i32 %34, i32* %3, align 4
  br label %23

35:                                               ; preds = %23
  store i32 1, i32* %3, align 4
  br label %36

36:                                               ; preds = %82, %35
  %37 = load i32, i32* %3, align 4
  %38 = load i32, i32* %1, align 4
  %39 = sub nsw i32 %38, 1
  %40 = icmp sle i32 %37, %39
  br i1 %40, label %41, label %85

41:                                               ; preds = %36
  store i32 1, i32* %4, align 4
  br label %42

42:                                               ; preds = %78, %41
  %43 = load i32, i32* %4, align 4
  %44 = load i32, i32* %1, align 4
  %45 = load i32, i32* %3, align 4
  %46 = sub nsw i32 %44, %45
  %47 = icmp sle i32 %43, %46
  br i1 %47, label %48, label %81

48:                                               ; preds = %42
  %49 = load i32, i32* %4, align 4
  %50 = sext i32 %49 to i64
  %51 = getelementptr inbounds [1000 x i32], [1000 x i32]* %5, i64 0, i64 %50
  %52 = load i32, i32* %51, align 4
  %53 = load i32, i32* %4, align 4
  %54 = add nsw i32 %53, 1
  %55 = sext i32 %54 to i64
  %56 = getelementptr inbounds [1000 x i32], [1000 x i32]* %5, i64 0, i64 %55
  %57 = load i32, i32* %56, align 4
  %58 = icmp sgt i32 %52, %57
  br i1 %58, label %59, label %77

59:                                               ; preds = %48
  %60 = load i32, i32* %4, align 4
  %61 = sext i32 %60 to i64
  %62 = getelementptr inbounds [1000 x i32], [1000 x i32]* %5, i64 0, i64 %61
  %63 = load i32, i32* %62, align 4
  store i32 %63, i32* %7, align 4
  %64 = load i32, i32* %4, align 4
  %65 = add nsw i32 %64, 1
  %66 = sext i32 %65 to i64
  %67 = getelementptr inbounds [1000 x i32], [1000 x i32]* %5, i64 0, i64 %66
  %68 = load i32, i32* %67, align 4
  %69 = load i32, i32* %4, align 4
  %70 = sext i32 %69 to i64
  %71 = getelementptr inbounds [1000 x i32], [1000 x i32]* %5, i64 0, i64 %70
  store i32 %68, i32* %71, align 4
  %72 = load i32, i32* %7, align 4
  %73 = load i32, i32* %4, align 4
  %74 = add nsw i32 %73, 1
  %75 = sext i32 %74 to i64
  %76 = getelementptr inbounds [1000 x i32], [1000 x i32]* %5, i64 0, i64 %75
  store i32 %72, i32* %76, align 4
  br label %77

77:                                               ; preds = %59, %48
  br label %78

78:                                               ; preds = %77
  %79 = load i32, i32* %4, align 4
  %80 = add nsw i32 %79, 1
  store i32 %80, i32* %4, align 4
  br label %42

81:                                               ; preds = %42
  br label %82

82:                                               ; preds = %81
  %83 = load i32, i32* %3, align 4
  %84 = add nsw i32 %83, 1
  store i32 %84, i32* %3, align 4
  br label %36

85:                                               ; preds = %36
  store i32 1, i32* %3, align 4
  br label %86

86:                                               ; preds = %132, %85
  %87 = load i32, i32* %3, align 4
  %88 = load i32, i32* %2, align 4
  %89 = sub nsw i32 %88, 1
  %90 = icmp sle i32 %87, %89
  br i1 %90, label %91, label %135

91:                                               ; preds = %86
  store i32 1, i32* %4, align 4
  br label %92

92:                                               ; preds = %128, %91
  %93 = load i32, i32* %4, align 4
  %94 = load i32, i32* %2, align 4
  %95 = load i32, i32* %3, align 4
  %96 = sub nsw i32 %94, %95
  %97 = icmp sle i32 %93, %96
  br i1 %97, label %98, label %131

98:                                               ; preds = %92
  %99 = load i32, i32* %4, align 4
  %100 = sext i32 %99 to i64
  %101 = getelementptr inbounds [1000 x i32], [1000 x i32]* %6, i64 0, i64 %100
  %102 = load i32, i32* %101, align 4
  %103 = load i32, i32* %4, align 4
  %104 = add nsw i32 %103, 1
  %105 = sext i32 %104 to i64
  %106 = getelementptr inbounds [1000 x i32], [1000 x i32]* %6, i64 0, i64 %105
  %107 = load i32, i32* %106, align 4
  %108 = icmp sgt i32 %102, %107
  br i1 %108, label %109, label %127

109:                                              ; preds = %98
  %110 = load i32, i32* %4, align 4
  %111 = sext i32 %110 to i64
  %112 = getelementptr inbounds [1000 x i32], [1000 x i32]* %6, i64 0, i64 %111
  %113 = load i32, i32* %112, align 4
  store i32 %113, i32* %8, align 4
  %114 = load i32, i32* %4, align 4
  %115 = add nsw i32 %114, 1
  %116 = sext i32 %115 to i64
  %117 = getelementptr inbounds [1000 x i32], [1000 x i32]* %6, i64 0, i64 %116
  %118 = load i32, i32* %117, align 4
  %119 = load i32, i32* %4, align 4
  %120 = sext i32 %119 to i64
  %121 = getelementptr inbounds [1000 x i32], [1000 x i32]* %6, i64 0, i64 %120
  store i32 %118, i32* %121, align 4
  %122 = load i32, i32* %8, align 4
  %123 = load i32, i32* %4, align 4
  %124 = add nsw i32 %123, 1
  %125 = sext i32 %124 to i64
  %126 = getelementptr inbounds [1000 x i32], [1000 x i32]* %6, i64 0, i64 %125
  store i32 %122, i32* %126, align 4
  br label %127

127:                                              ; preds = %109, %98
  br label %128

128:                                              ; preds = %127
  %129 = load i32, i32* %4, align 4
  %130 = add nsw i32 %129, 1
  store i32 %130, i32* %4, align 4
  br label %92

131:                                              ; preds = %92
  br label %132

132:                                              ; preds = %131
  %133 = load i32, i32* %3, align 4
  %134 = add nsw i32 %133, 1
  store i32 %134, i32* %3, align 4
  br label %86

135:                                              ; preds = %86
  store i32 1, i32* %3, align 4
  br label %136

136:                                              ; preds = %146, %135
  %137 = load i32, i32* %3, align 4
  %138 = load i32, i32* %1, align 4
  %139 = icmp sle i32 %137, %138
  br i1 %139, label %140, label %149

140:                                              ; preds = %136
  %141 = load i32, i32* %3, align 4
  %142 = sext i32 %141 to i64
  %143 = getelementptr inbounds [1000 x i32], [1000 x i32]* %5, i64 0, i64 %142
  %144 = load i32, i32* %143, align 4
  %145 = call i32 (i8*, ...) @printf(i8* getelementptr inbounds ([4 x i8], [4 x i8]* @.str.2, i64 0, i64 0), i32 %144)
  br label %146

146:                                              ; preds = %140
  %147 = load i32, i32* %3, align 4
  %148 = add nsw i32 %147, 1
  store i32 %148, i32* %3, align 4
  br label %136

149:                                              ; preds = %136
  store i32 1, i32* %3, align 4
  br label %150

150:                                              ; preds = %161, %149
  %151 = load i32, i32* %3, align 4
  %152 = load i32, i32* %2, align 4
  %153 = sub nsw i32 %152, 1
  %154 = icmp sle i32 %151, %153
  br i1 %154, label %155, label %164

155:                                              ; preds = %150
  %156 = load i32, i32* %3, align 4
  %157 = sext i32 %156 to i64
  %158 = getelementptr inbounds [1000 x i32], [1000 x i32]* %6, i64 0, i64 %157
  %159 = load i32, i32* %158, align 4
  %160 = call i32 (i8*, ...) @printf(i8* getelementptr inbounds ([4 x i8], [4 x i8]* @.str.2, i64 0, i64 0), i32 %159)
  br label %161

161:                                              ; preds = %155
  %162 = load i32, i32* %3, align 4
  %163 = add nsw i32 %162, 1
  store i32 %163, i32* %3, align 4
  br label %150

164:                                              ; preds = %150
  %165 = load i32, i32* %2, align 4
  %166 = sext i32 %165 to i64
  %167 = getelementptr inbounds [1000 x i32], [1000 x i32]* %6, i64 0, i64 %166
  %168 = load i32, i32* %167, align 4
  %169 = call i32 (i8*, ...) @printf(i8* getelementptr inbounds ([3 x i8], [3 x i8]* @.str.1, i64 0, i64 0), i32 %168)
  ret void
}

declare dso_local i32 @__isoc99_scanf(i8*, ...) #1

declare dso_local i32 @printf(i8*, ...) #1


!llvm.module.flags = !{!0}
!llvm.ident = !{!1}

!0 = !{i32 1, !"wchar_size", i32 4}
!1 = !{!"clang version 10.0.0-4ubuntu1 "}
